; Function Attrs: nounwind uwtable
define range(i32 0, 2) i32 @Abc_ObjCheckAbsorb(ptr noundef readonly captures(none) %0, ptr noundef readonly %1, i32 noundef %2, ptr noundef captures(none) initializes((4, 8)) %3) local_unnamed_addr #0 {
  %5 = getelementptr inbounds nuw i8, ptr %3, i64 4
  store i32 0, ptr %5, align 4, !tbaa !3
  %6 = getelementptr i8, ptr %0, i64 28
  %.val29 = load i32, ptr %6, align 4, !tbaa !9
  %7 = icmp sgt i32 %.val29, 0
  br i1 %7, label %.lr.ph, label %.critedge.preheader

.lr.ph:                                           ; preds = %4
  %8 = getelementptr i8, ptr %0, i64 32
  %.phi.trans.insert.i = getelementptr inbounds nuw i8, ptr %3, i64 8
  br label %14

.critedge.preheader:                              ; preds = %51, %4
  %9 = phi i32 [ 0, %4 ], [ %52, %51 ]
  %10 = getelementptr i8, ptr %1, i64 28
  %.val2331 = load i32, ptr %10, align 4, !tbaa !9
  %11 = icmp sgt i32 %.val2331, 0
  br i1 %11, label %.lr.ph33, label %.critedge2

.lr.ph33:                                         ; preds = %.critedge.preheader
  %12 = getelementptr i8, ptr %1, i64 32
  %13 = getelementptr inbounds nuw i8, ptr %3, i64 8
  br label %57

14:                                               ; preds = %.lr.ph, %51
  %.val39 = phi i32 [ %.val29, %.lr.ph ], [ %.val, %51 ]
  %15 = phi i32 [ 0, %.lr.ph ], [ %52, %51 ]
  %indvars.iv = phi i64 [ 0, %.lr.ph ], [ %indvars.iv.next, %51 ]
  %.val24 = load ptr, ptr %0, align 8, !tbaa !15
  %.val25 = load ptr, ptr %8, align 8, !tbaa !16
  %16 = getelementptr i8, ptr %.val24, i64 32
  %.val24.val = load ptr, ptr %16, align 8, !tbaa !17
  %17 = getelementptr i8, ptr %.val24.val, i64 8
  %.val24.val.val = load ptr, ptr %17, align 8, !tbaa !31
  %18 = getelementptr inbounds nuw i32, ptr %.val25, i64 %indvars.iv
  %19 = load i32, ptr %18, align 4, !tbaa !32
  %20 = sext i32 %19 to i64
  %21 = getelementptr inbounds ptr, ptr %.val24.val.val, i64 %20
  %22 = load ptr, ptr %21, align 8, !tbaa !33
  %.not = icmp eq ptr %22, %1
  br i1 %.not, label %51, label %23

23:                                               ; preds = %14
  %24 = load i32, ptr %3, align 8, !tbaa !34
  %25 = icmp eq i32 %15, %24
  br i1 %25, label %26, label %.Vec_PtrGrow.exit11_crit_edge.i

.Vec_PtrGrow.exit11_crit_edge.i:                  ; preds = %23
  %.pre.i = load ptr, ptr %.phi.trans.insert.i, align 8, !tbaa !31
  br label %Vec_PtrPush.exit

26:                                               ; preds = %23
  %27 = icmp slt i32 %15, 16
  br i1 %27, label %28, label %35

28:                                               ; preds = %26
  %29 = load ptr, ptr %.phi.trans.insert.i, align 8, !tbaa !31
  %.not9.i.i = icmp eq ptr %29, null
  br i1 %.not9.i.i, label %32, label %30

30:                                               ; preds = %28
  %31 = tail call dereferenceable_or_null(128) ptr @realloc(ptr noundef nonnull %29, i64 noundef 128) #18
  br label %Vec_PtrGrow.exit.i

32:                                               ; preds = %28
  %33 = tail call noalias dereferenceable_or_null(128) ptr @malloc(i64 noundef 128) #19
  br label %Vec_PtrGrow.exit.i

Vec_PtrGrow.exit.i:                               ; preds = %32, %30
  %34 = phi ptr [ %31, %30 ], [ %33, %32 ]
  store ptr %34, ptr %.phi.trans.insert.i, align 8, !tbaa !31
  store i32 16, ptr %3, align 8, !tbaa !34
  br label %Vec_PtrPush.exit

35:                                               ; preds = %26
  %36 = shl nuw nsw i32 %15, 1
  %37 = load ptr, ptr %.phi.trans.insert.i, align 8, !tbaa !31
  %.not9.i10.i = icmp eq ptr %37, null
  %38 = zext nneg i32 %36 to i64
  %39 = shl nuw nsw i64 %38, 3
  br i1 %.not9.i10.i, label %42, label %40

40:                                               ; preds = %35
  %41 = tail call ptr @realloc(ptr noundef nonnull %37, i64 noundef %39) #18
  br label %44

42:                                               ; preds = %35
  %43 = tail call noalias ptr @malloc(i64 noundef %39) #19
  br label %44

44:                                               ; preds = %42, %40
  %45 = phi ptr [ %41, %40 ], [ %43, %42 ]
  store ptr %45, ptr %.phi.trans.insert.i, align 8, !tbaa !31
  store i32 %36, ptr %3, align 8, !tbaa !34
  br label %Vec_PtrPush.exit

Vec_PtrPush.exit:                                 ; preds = %.Vec_PtrGrow.exit11_crit_edge.i, %Vec_PtrGrow.exit.i, %44
  %46 = phi ptr [ %.pre.i, %.Vec_PtrGrow.exit11_crit_edge.i ], [ %45, %44 ], [ %34, %Vec_PtrGrow.exit.i ]
  %47 = load i32, ptr %5, align 4, !tbaa !3
  %48 = add nsw i32 %47, 1
  store i32 %48, ptr %5, align 4, !tbaa !3
  %49 = sext i32 %47 to i64
  %50 = getelementptr inbounds ptr, ptr %46, i64 %49
  store ptr %22, ptr %50, align 8, !tbaa !33
  %.val.pre = load i32, ptr %6, align 4, !tbaa !9
  br label %51

51:                                               ; preds = %14, %Vec_PtrPush.exit
  %.val = phi i32 [ %.val39, %14 ], [ %.val.pre, %Vec_PtrPush.exit ]
  %52 = phi i32 [ %15, %14 ], [ %48, %Vec_PtrPush.exit ]
  %indvars.iv.next = add nuw nsw i64 %indvars.iv, 1
  %53 = sext i32 %.val to i64
  %54 = icmp slt i64 %indvars.iv.next, %53
  br i1 %54, label %14, label %.critedge.preheader, !llvm.loop !35

.critedge:                                        ; preds = %Vec_PtrPushUnique.exit
  %indvars.iv.next37 = add nuw nsw i64 %indvars.iv36, 1
  %.val23 = load i32, ptr %10, align 4, !tbaa !9
  %55 = sext i32 %.val23 to i64
  %56 = icmp slt i64 %indvars.iv.next37, %55
  br i1 %56, label %57, label %.critedge2, !llvm.loop !37

57:                                               ; preds = %.lr.ph33, %.critedge
  %.val2841 = phi i32 [ %9, %.lr.ph33 ], [ %.val28, %.critedge ]
  %indvars.iv36 = phi i64 [ 0, %.lr.ph33 ], [ %indvars.iv.next37, %.critedge ]
  %.val26 = load ptr, ptr %1, align 8, !tbaa !15
  %.val27 = load ptr, ptr %12, align 8, !tbaa !16
  %58 = getelementptr i8, ptr %.val26, i64 32
  %.val26.val = load ptr, ptr %58, align 8, !tbaa !17
  %59 = getelementptr i8, ptr %.val26.val, i64 8
  %.val26.val.val = load ptr, ptr %59, align 8, !tbaa !31
  %60 = getelementptr inbounds nuw i32, ptr %.val27, i64 %indvars.iv36
  %61 = load i32, ptr %60, align 4, !tbaa !32
  %62 = sext i32 %61 to i64
  %63 = getelementptr inbounds ptr, ptr %.val26.val.val, i64 %62
  %64 = load ptr, ptr %63, align 8, !tbaa !33
  %65 = icmp sgt i32 %.val2841, 0
  br i1 %65, label %.lr.ph.i, label %._crit_edge.i

.lr.ph.i:                                         ; preds = %57
  %66 = load ptr, ptr %13, align 8, !tbaa !31
  %wide.trip.count.i = zext nneg i32 %.val2841 to i64
  br label %68

67:                                               ; preds = %68
  %indvars.iv.next.i = add nuw nsw i64 %indvars.iv.i, 1
  %exitcond.not.i = icmp eq i64 %indvars.iv.next.i, %wide.trip.count.i
  br i1 %exitcond.not.i, label %._crit_edge.i, label %68, !llvm.loop !38

68:                                               ; preds = %67, %.lr.ph.i
  %indvars.iv.i = phi i64 [ 0, %.lr.ph.i ], [ %indvars.iv.next.i, %67 ]
  %69 = getelementptr inbounds nuw ptr, ptr %66, i64 %indvars.iv.i
  %70 = load ptr, ptr %69, align 8, !tbaa !33
  %71 = icmp eq ptr %70, %64
  br i1 %71, label %Vec_PtrPushUnique.exit, label %67

._crit_edge.i:                                    ; preds = %67, %57
  %72 = load i32, ptr %3, align 8, !tbaa !34
  %73 = icmp eq i32 %.val2841, %72
  br i1 %73, label %74, label %.Vec_PtrGrow.exit11_crit_edge.i.i

.Vec_PtrGrow.exit11_crit_edge.i.i:                ; preds = %._crit_edge.i
  %.pre.i.i = load ptr, ptr %13, align 8, !tbaa !31
  br label %Vec_PtrPush.exit.i

74:                                               ; preds = %._crit_edge.i
  %75 = icmp slt i32 %.val2841, 16
  br i1 %75, label %76, label %83

76:                                               ; preds = %74
  %77 = load ptr, ptr %13, align 8, !tbaa !31
  %.not9.i.i.i = icmp eq ptr %77, null
  br i1 %.not9.i.i.i, label %80, label %78

78:                                               ; preds = %76
  %79 = tail call dereferenceable_or_null(128) ptr @realloc(ptr noundef nonnull %77, i64 noundef 128) #18
  br label %Vec_PtrGrow.exit.i.i

80:                                               ; preds = %76
  %81 = tail call noalias dereferenceable_or_null(128) ptr @malloc(i64 noundef 128) #19
  br label %Vec_PtrGrow.exit.i.i

Vec_PtrGrow.exit.i.i:                             ; preds = %80, %78
  %82 = phi ptr [ %79, %78 ], [ %81, %80 ]
  store ptr %82, ptr %13, align 8, !tbaa !31
  store i32 16, ptr %3, align 8, !tbaa !34
  br label %Vec_PtrPush.exit.i

83:                                               ; preds = %74
  %84 = shl nuw nsw i32 %.val2841, 1
  %85 = load ptr, ptr %13, align 8, !tbaa !31
  %.not9.i10.i.i = icmp eq ptr %85, null
  %86 = zext nneg i32 %84 to i64
  %87 = shl nuw nsw i64 %86, 3
  br i1 %.not9.i10.i.i, label %90, label %88

88:                                               ; preds = %83
  %89 = tail call ptr @realloc(ptr noundef nonnull %85, i64 noundef %87) #18
  br label %92

90:                                               ; preds = %83
  %91 = tail call noalias ptr @malloc(i64 noundef %87) #19
  br label %92

92:                                               ; preds = %90, %88
  %93 = phi ptr [ %89, %88 ], [ %91, %90 ]
  store ptr %93, ptr %13, align 8, !tbaa !31
  store i32 %84, ptr %3, align 8, !tbaa !34
  br label %Vec_PtrPush.exit.i

Vec_PtrPush.exit.i:                               ; preds = %92, %Vec_PtrGrow.exit.i.i, %.Vec_PtrGrow.exit11_crit_edge.i.i
  %94 = phi ptr [ %.pre.i.i, %.Vec_PtrGrow.exit11_crit_edge.i.i ], [ %93, %92 ], [ %82, %Vec_PtrGrow.exit.i.i ]
  %95 = load i32, ptr %5, align 4, !tbaa !3
  %96 = add nsw i32 %95, 1
  store i32 %96, ptr %5, align 4, !tbaa !3
  %97 = sext i32 %95 to i64
  %98 = getelementptr inbounds ptr, ptr %94, i64 %97
  store ptr %64, ptr %98, align 8, !tbaa !33
  br label %Vec_PtrPushUnique.exit

Vec_PtrPushUnique.exit:                           ; preds = %68, %Vec_PtrPush.exit.i
  %.val28 = phi i32 [ %96, %Vec_PtrPush.exit.i ], [ %.val2841, %68 ]
  %99 = icmp sgt i32 %.val28, %2
  br i1 %99, label %.critedge2, label %.critedge

.critedge2:                                       ; preds = %Vec_PtrPushUnique.exit, %.critedge, %.critedge.preheader
  %.021 = phi i32 [ 1, %.critedge.preheader ], [ 1, %.critedge ], [ 0, %Vec_PtrPushUnique.exit ]
  ret i32 %.021
}